target datalayout = "e-m:e-p270:32:32-p271:32:32-p272:64:64-i64:64-i128:128-f80:128-n8:16:32:64-S128"
target triple = "x86_64-pc-linux-gnu"

%"class.google::protobuf::RepeatedField" = type { i32, i32, ptr }
%"class.std::__cxx11::basic_string" = type { %"struct.std::__cxx11::basic_string<char>::_Alloc_hider", i64, %union.anon.3 }
%"struct.std::__cxx11::basic_string<char>::_Alloc_hider" = type { ptr }
%union.anon.3 = type { i64, [8 x i8] }
%"class.google::protobuf::internal::LogMessage" = type { i32, ptr, i32, %"class.std::__cxx11::basic_string" }
%"class.google::protobuf::internal::LogFinisher" = type { i8 }
%"class.google::protobuf::internal::SymbolBase" = type { i8 }
%"class.google::protobuf::FieldDescriptor" = type { %"class.google::protobuf::internal::SymbolBase", i8, i8, i8, i32, ptr, ptr, ptr, ptr, %union.anon.9, %union.anon.10, ptr, %union.anon.11 }
%union.anon.9 = type { ptr }
%union.anon.10 = type { ptr }
%union.anon.11 = type { i64 }
%class.anon = type { ptr, ptr, ptr, ptr }
%"struct.std::pair.70" = type { ptr, i64 }

@.str.47 = private unnamed_addr constant [146 x i8] c"generated/home/dtcxzyw/WorkSpace/Projects/compilers/llvm-opt-benchmark/bench/opencv/opencv/3rdparty/protobuf/src/google/protobuf/repeated_field.h\00", align 1
@.str.48 = private unnamed_addr constant [36 x i8] c"CHECK failed: (total_size_) > (0): \00", align 1

; Function Attrs: mustprogress nounwind uwtable
define available_externally noundef ptr @_ZNK6google8protobuf13RepeatedFieldIiE15unsafe_elementsEv(ptr noundef nonnull align 8 dereferenceable(16) %0) #9 align 2 {
  %2 = alloca ptr, align 8
  store ptr %0, ptr %2, align 8, !tbaa !45
  %3 = load ptr, ptr %2, align 8
  %4 = getelementptr inbounds nuw %"class.google::protobuf::RepeatedField", ptr %3, i32 0, i32 2
  %5 = load ptr, ptr %4, align 8, !tbaa !252
  ret ptr %5
}

; Function Attrs: mustprogress uwtable
define available_externally noundef ptr @_ZNK6google8protobuf13RepeatedFieldIiE8elementsEv(ptr noundef nonnull align 8 dereferenceable(16) %0) #4 align 2 personality ptr @__gxx_personality_v0 {
  %2 = alloca ptr, align 8
  %3 = alloca %"class.google::protobuf::internal::LogMessage", align 8
  %4 = alloca i1, align 1
  %5 = alloca i1, align 1
  %6 = alloca ptr, align 8
  %7 = alloca i32, align 4
  %8 = alloca %"class.google::protobuf::internal::LogFinisher", align 1
  store ptr %0, ptr %2, align 8, !tbaa !45
  %9 = load ptr, ptr %2, align 8
  br label %10

10:                                               ; preds = %26, %1
  br i1 false, label %11, label %42

11:                                               ; preds = %10
  %12 = getelementptr inbounds nuw %"class.google::protobuf::RepeatedField", ptr %9, i32 0, i32 1
  %13 = load i32, ptr %12, align 4, !tbaa !50
  %14 = icmp sgt i32 %13, 0
  store i1 false, ptr %4, align 1
  store i1 false, ptr %5, align 1
  call void @llvm.lifetime.start.p0(i64 1, ptr %8) #3
  br i1 %14, label %15, label %16

15:                                               ; preds = %11
  br label %20

16:                                               ; preds = %11
  call void @llvm.lifetime.start.p0(i64 56, ptr %3) #3
  store i1 true, ptr %4, align 1
  call void @_ZN6google8protobuf8internal10LogMessageC1ENS0_8LogLevelEPKci(ptr noundef nonnull align 8 dereferenceable(56) %3, i32 noundef 3, ptr noundef @.str.47, i32 noundef 353)
  store i1 true, ptr %5, align 1
  %17 = invoke noundef nonnull align 8 dereferenceable(56) ptr @_ZN6google8protobuf8internal10LogMessagelsEPKc(ptr noundef nonnull align 8 dereferenceable(56) %3, ptr noundef @.str.48)
          to label %18 unwind label %27

18:                                               ; preds = %16
  invoke void @_ZN6google8protobuf8internal11LogFinisheraSERNS1_10LogMessageE(ptr noundef nonnull align 1 dereferenceable(1) %8, ptr noundef nonnull align 8 dereferenceable(56) %17)
          to label %19 unwind label %31

19:                                               ; preds = %18
  br label %20

20:                                               ; preds = %19, %15
  call void @llvm.lifetime.end.p0(i64 1, ptr %8) #3
  %21 = load i1, ptr %5, align 1
  br i1 %21, label %22, label %23

22:                                               ; preds = %20
  call void @_ZN6google8protobuf8internal10LogMessageD1Ev(ptr noundef nonnull align 8 dereferenceable(56) %3) #3
  br label %23

23:                                               ; preds = %22, %20
  %24 = load i1, ptr %4, align 1
  br i1 %24, label %25, label %26

25:                                               ; preds = %23
  call void @llvm.lifetime.end.p0(i64 56, ptr %3) #3
  br label %26

26:                                               ; preds = %25, %23
  br label %10, !llvm.loop !570

27:                                               ; preds = %16
  %28 = landingpad { ptr, i32 }
          cleanup
  %29 = extractvalue { ptr, i32 } %28, 0
  store ptr %29, ptr %6, align 8
  %30 = extractvalue { ptr, i32 } %28, 1
  store i32 %30, ptr %7, align 4
  br label %35

31:                                               ; preds = %18
  %32 = landingpad { ptr, i32 }
          cleanup
  %33 = extractvalue { ptr, i32 } %32, 0
  store ptr %33, ptr %6, align 8
  %34 = extractvalue { ptr, i32 } %32, 1
  store i32 %34, ptr %7, align 4
  call void @llvm.lifetime.end.p0(i64 1, ptr %8) #3
  br label %35

35:                                               ; preds = %31, %27
  %36 = load i1, ptr %5, align 1
  br i1 %36, label %37, label %38

37:                                               ; preds = %35
  call void @_ZN6google8protobuf8internal10LogMessageD1Ev(ptr noundef nonnull align 8 dereferenceable(56) %3) #3
  br label %38

38:                                               ; preds = %37, %35
  %39 = load i1, ptr %4, align 1
  br i1 %39, label %40, label %41

40:                                               ; preds = %38
  call void @llvm.lifetime.end.p0(i64 56, ptr %3) #3
  br label %41

41:                                               ; preds = %40, %38
  br label %44

42:                                               ; preds = %10
  %43 = call noundef ptr @_ZNK6google8protobuf13RepeatedFieldIiE15unsafe_elementsEv(ptr noundef nonnull align 8 dereferenceable(16) %9)
  ret ptr %43

44:                                               ; preds = %41
  %45 = load ptr, ptr %6, align 8
  %46 = load i32, ptr %7, align 4
  %47 = insertvalue { ptr, i32 } poison, ptr %45, 0
  %48 = insertvalue { ptr, i32 } %47, i32 %46, 1
  resume { ptr, i32 } %48
}

; Function Attrs: inlinehint mustprogress uwtable
define linkonce_odr hidden void @_ZN6google8protobuf8internal11WriteVarintEjmPNS0_15UnknownFieldSetE(i32 noundef %0, i64 noundef %1, ptr noundef %2) #7 comdat {
  %4 = alloca i32, align 4
  %5 = alloca i64, align 8
  %6 = alloca ptr, align 8
  store i32 %0, ptr %4, align 4, !tbaa !10
  store i64 %1, ptr %5, align 8, !tbaa !17
  store ptr %2, ptr %6, align 8, !tbaa !16
  %7 = load ptr, ptr %6, align 8, !tbaa !16
  %8 = load i32, ptr %4, align 4, !tbaa !10
  %9 = load i64, ptr %5, align 8, !tbaa !17
  call void @_ZN6google8protobuf15UnknownFieldSet9AddVarintEim(ptr noundef nonnull align 8 dereferenceable(24) %7, i32 noundef %8, i64 noundef %9)
  ret void
}

; Function Attrs: inlinehint mustprogress nounwind uwtable
define linkonce_odr hidden noundef i32 @_ZNK6google8protobuf15FieldDescriptor6numberEv(ptr noundef nonnull align 8 dereferenceable(72) %0) #6 comdat align 2 {
  %2 = alloca ptr, align 8
  store ptr %0, ptr %2, align 8, !tbaa !78
  %3 = load ptr, ptr %2, align 8
  %4 = getelementptr inbounds nuw %"class.google::protobuf::FieldDescriptor", ptr %3, i32 0, i32 4
  %5 = load i32, ptr %4, align 4, !tbaa !253
  ret i32 %5
}

; Function Attrs: inlinehint mustprogress uwtable
define available_externally void @_ZN6google8protobuf13RepeatedFieldIiE3AddERKi(ptr noundef nonnull align 8 dereferenceable(16) %0, ptr noundef nonnull align 4 dereferenceable(4) %1) #7 align 2 {
  %3 = alloca ptr, align 8
  %4 = alloca ptr, align 8
  %5 = alloca i32, align 4
  %6 = alloca i32, align 4
  store ptr %0, ptr %3, align 8, !tbaa !45
  store ptr %1, ptr %4, align 8, !tbaa !39
  %7 = load ptr, ptr %3, align 8
  call void @llvm.lifetime.start.p0(i64 4, ptr %5) #3
  %8 = getelementptr inbounds nuw %"class.google::protobuf::RepeatedField", ptr %7, i32 0, i32 0
  %9 = load i32, ptr %8, align 8, !tbaa !48
  store i32 %9, ptr %5, align 4, !tbaa !10
  %10 = load i32, ptr %5, align 4, !tbaa !10
  %11 = getelementptr inbounds nuw %"class.google::protobuf::RepeatedField", ptr %7, i32 0, i32 1
  %12 = load i32, ptr %11, align 4, !tbaa !50
  %13 = icmp eq i32 %10, %12
  br i1 %13, label %14, label %25

14:                                               ; preds = %2
  call void @llvm.lifetime.start.p0(i64 4, ptr %6) #3
  %15 = load ptr, ptr %4, align 8, !tbaa !39
  %16 = load i32, ptr %15, align 4, !tbaa !10
  store i32 %16, ptr %6, align 4, !tbaa !10
  %17 = getelementptr inbounds nuw %"class.google::protobuf::RepeatedField", ptr %7, i32 0, i32 1
  %18 = load i32, ptr %17, align 4, !tbaa !50
  %19 = add nsw i32 %18, 1
  call void @_ZN6google8protobuf13RepeatedFieldIiE7ReserveEi(ptr noundef nonnull align 8 dereferenceable(16) %7, i32 noundef %19)
  %20 = load i32, ptr %6, align 4, !tbaa !10
  %21 = call noundef ptr @_ZNK6google8protobuf13RepeatedFieldIiE8elementsEv(ptr noundef nonnull align 8 dereferenceable(16) %7)
  %22 = load i32, ptr %5, align 4, !tbaa !10
  %23 = zext i32 %22 to i64
  %24 = getelementptr inbounds nuw i32, ptr %21, i64 %23
  store i32 %20, ptr %24, align 4, !tbaa !10
  call void @llvm.lifetime.end.p0(i64 4, ptr %6) #3
  br label %32

25:                                               ; preds = %2
  %26 = load ptr, ptr %4, align 8, !tbaa !39
  %27 = load i32, ptr %26, align 4, !tbaa !10
  %28 = call noundef ptr @_ZNK6google8protobuf13RepeatedFieldIiE8elementsEv(ptr noundef nonnull align 8 dereferenceable(16) %7)
  %29 = load i32, ptr %5, align 4, !tbaa !10
  %30 = zext i32 %29 to i64
  %31 = getelementptr inbounds nuw i32, ptr %28, i64 %30
  store i32 %27, ptr %31, align 4, !tbaa !10
  br label %32

32:                                               ; preds = %25, %14
  %33 = load i32, ptr %5, align 4, !tbaa !10
  %34 = add i32 %33, 1
  %35 = getelementptr inbounds nuw %"class.google::protobuf::RepeatedField", ptr %7, i32 0, i32 0
  store i32 %34, ptr %35, align 8, !tbaa !48
  call void @llvm.lifetime.end.p0(i64 4, ptr %5) #3
  ret void
}

; Function Attrs: inlinehint mustprogress uwtable
define linkonce_odr hidden noundef ptr @_ZN6google8protobuf8internal15VarintParseSlowEPKcjPm(ptr noundef %0, i32 noundef %1, ptr noundef %2) #7 comdat {
  %4 = alloca ptr, align 8
  %5 = alloca i32, align 4
  %6 = alloca ptr, align 8
  %7 = alloca %"struct.std::pair.70", align 8
  store ptr %0, ptr %4, align 8, !tbaa !51
  store i32 %1, ptr %5, align 4, !tbaa !10
  store ptr %2, ptr %6, align 8, !tbaa !23
  call void @llvm.lifetime.start.p0(i64 16, ptr %7) #3
  %8 = load ptr, ptr %4, align 8, !tbaa !51
  %9 = load i32, ptr %5, align 4, !tbaa !10
  %10 = call { ptr, i64 } @_ZN6google8protobuf8internal17VarintParseSlow64EPKcj(ptr noundef %8, i32 noundef %9)
  %11 = getelementptr inbounds nuw { ptr, i64 }, ptr %7, i32 0, i32 0
  %12 = extractvalue { ptr, i64 } %10, 0
  store ptr %12, ptr %11, align 8
  %13 = getelementptr inbounds nuw { ptr, i64 }, ptr %7, i32 0, i32 1
  %14 = extractvalue { ptr, i64 } %10, 1
  store i64 %14, ptr %13, align 8
  %15 = getelementptr inbounds nuw %"struct.std::pair.70", ptr %7, i32 0, i32 1
  %16 = load i64, ptr %15, align 8, !tbaa !571
  %17 = load ptr, ptr %6, align 8, !tbaa !23
  store i64 %16, ptr %17, align 8, !tbaa !17
  %18 = getelementptr inbounds nuw %"struct.std::pair.70", ptr %7, i32 0, i32 0
  %19 = load ptr, ptr %18, align 8, !tbaa !573
  call void @llvm.lifetime.end.p0(i64 16, ptr %7) #3
  ret ptr %19
}

; Function Attrs: inlinehint mustprogress uwtable
define internal void @"_ZZN6google8protobuf8internal10WireFormat27_InternalParseAndMergeFieldEPNS0_7MessageEPKcPNS1_12ParseContextEmPKNS0_10ReflectionEPKNS0_15FieldDescriptorEENK3$_0clEm"(ptr noundef nonnull align 8 dereferenceable(32) %0, i64 noundef %1) #7 align 2 {
  %3 = alloca ptr, align 8
  %4 = alloca i64, align 8
  %5 = alloca i32, align 4
  store ptr %0, ptr %3, align 8, !tbaa !44
  store i64 %1, ptr %4, align 8, !tbaa !17
  %6 = load ptr, ptr %3, align 8
  %7 = getelementptr inbounds nuw %class.anon, ptr %6, i32 0, i32 1
  %8 = load ptr, ptr %7, align 8, !tbaa !183
  %9 = call noundef ptr @_ZNK6google8protobuf15FieldDescriptor9enum_typeEv(ptr noundef nonnull align 8 dereferenceable(72) %8)
  %10 = load i64, ptr %4, align 8, !tbaa !17
  %11 = trunc i64 %10 to i32
  %12 = call noundef ptr @_ZNK6google8protobuf14EnumDescriptor17FindValueByNumberEi(ptr noundef nonnull align 8 dereferenceable(72) %9, i32 noundef %11)
  %13 = icmp ne ptr %12, null
  br i1 %13, label %14, label %19

14:                                               ; preds = %2
  %15 = getelementptr inbounds nuw %class.anon, ptr %6, i32 0, i32 0
  %16 = load ptr, ptr %15, align 8, !tbaa !181
  call void @llvm.lifetime.start.p0(i64 4, ptr %5) #3
  %17 = load i64, ptr %4, align 8, !tbaa !17
  %18 = trunc i64 %17 to i32
  store i32 %18, ptr %5, align 4, !tbaa !10
  call void @_ZN6google8protobuf13RepeatedFieldIiE3AddERKi(ptr noundef nonnull align 8 dereferenceable(16) %16, ptr noundef nonnull align 4 dereferenceable(4) %5)
  call void @llvm.lifetime.end.p0(i64 4, ptr %5) #3
  br label %29

19:                                               ; preds = %2
  %20 = getelementptr inbounds nuw %class.anon, ptr %6, i32 0, i32 1
  %21 = load ptr, ptr %20, align 8, !tbaa !183
  %22 = call noundef i32 @_ZNK6google8protobuf15FieldDescriptor6numberEv(ptr noundef nonnull align 8 dereferenceable(72) %21)
  %23 = load i64, ptr %4, align 8, !tbaa !17
  %24 = getelementptr inbounds nuw %class.anon, ptr %6, i32 0, i32 2
  %25 = load ptr, ptr %24, align 8, !tbaa !184
  %26 = getelementptr inbounds nuw %class.anon, ptr %6, i32 0, i32 3
  %27 = load ptr, ptr %26, align 8, !tbaa !185
  %28 = call noundef ptr @_ZNK6google8protobuf10Reflection20MutableUnknownFieldsEPNS0_7MessageE(ptr noundef nonnull align 8 dereferenceable(96) %25, ptr noundef %27)
  call void @_ZN6google8protobuf8internal11WriteVarintEjmPNS0_15UnknownFieldSetE(i32 noundef %22, i64 noundef %23, ptr noundef %28)
  br label %29

29:                                               ; preds = %19, %14
  ret void
}

; Function Attrs: mustprogress uwtable
define linkonce_odr hidden noundef ptr @_ZN6google8protobuf8internal11VarintParseImEEPKcS4_PT_(ptr noundef %0, ptr noundef %1) #4 comdat {
  %3 = alloca ptr, align 8
  %4 = alloca ptr, align 8
  %5 = alloca ptr, align 8
  %6 = alloca ptr, align 8
  %7 = alloca i32, align 4
  %8 = alloca i32, align 4
  %9 = alloca i32, align 4
  store ptr %0, ptr %4, align 8, !tbaa !51
  store ptr %1, ptr %5, align 8, !tbaa !23
  call void @llvm.lifetime.start.p0(i64 8, ptr %6) #3
  %10 = load ptr, ptr %4, align 8, !tbaa !51
  store ptr %10, ptr %6, align 8, !tbaa !51
  call void @llvm.lifetime.start.p0(i64 4, ptr %7) #3
  %11 = load ptr, ptr %6, align 8, !tbaa !51
  %12 = getelementptr inbounds i8, ptr %11, i64 0
  %13 = load i8, ptr %12, align 1, !tbaa !33
  %14 = zext i8 %13 to i32
  store i32 %14, ptr %7, align 4, !tbaa !10
  %15 = load i32, ptr %7, align 4, !tbaa !10
  %16 = and i32 %15, 128
  %17 = icmp ne i32 %16, 0
  br i1 %17, label %24, label %18

18:                                               ; preds = %2
  %19 = load i32, ptr %7, align 4, !tbaa !10
  %20 = zext i32 %19 to i64
  %21 = load ptr, ptr %5, align 8, !tbaa !23
  store i64 %20, ptr %21, align 8, !tbaa !17
  %22 = load ptr, ptr %4, align 8, !tbaa !51
  %23 = getelementptr inbounds i8, ptr %22, i64 1
  store ptr %23, ptr %3, align 8
  store i32 1, ptr %8, align 4
  br label %49

24:                                               ; preds = %2
  call void @llvm.lifetime.start.p0(i64 4, ptr %9) #3
  %25 = load ptr, ptr %6, align 8, !tbaa !51
  %26 = getelementptr inbounds i8, ptr %25, i64 1
  %27 = load i8, ptr %26, align 1, !tbaa !33
  %28 = zext i8 %27 to i32
  store i32 %28, ptr %9, align 4, !tbaa !10
  %29 = load i32, ptr %9, align 4, !tbaa !10
  %30 = sub i32 %29, 1
  %31 = shl i32 %30, 7
  %32 = load i32, ptr %7, align 4, !tbaa !10
  %33 = add i32 %32, %31
  store i32 %33, ptr %7, align 4, !tbaa !10
  %34 = load i32, ptr %9, align 4, !tbaa !10
  %35 = and i32 %34, 128
  %36 = icmp ne i32 %35, 0
  br i1 %36, label %43, label %37

37:                                               ; preds = %24
  %38 = load i32, ptr %7, align 4, !tbaa !10
  %39 = zext i32 %38 to i64
  %40 = load ptr, ptr %5, align 8, !tbaa !23
  store i64 %39, ptr %40, align 8, !tbaa !17
  %41 = load ptr, ptr %4, align 8, !tbaa !51
  %42 = getelementptr inbounds i8, ptr %41, i64 2
  store ptr %42, ptr %3, align 8
  store i32 1, ptr %8, align 4
  br label %48

43:                                               ; preds = %24
  %44 = load ptr, ptr %4, align 8, !tbaa !51
  %45 = load i32, ptr %7, align 4, !tbaa !10
  %46 = load ptr, ptr %5, align 8, !tbaa !23
  %47 = call noundef ptr @_ZN6google8protobuf8internal15VarintParseSlowEPKcjPm(ptr noundef %44, i32 noundef %45, ptr noundef %46)
  store ptr %47, ptr %3, align 8
  store i32 1, ptr %8, align 4
  br label %48

48:                                               ; preds = %43, %37
  call void @llvm.lifetime.end.p0(i64 4, ptr %9) #3
  br label %49

49:                                               ; preds = %48, %18
  call void @llvm.lifetime.end.p0(i64 4, ptr %7) #3
  call void @llvm.lifetime.end.p0(i64 8, ptr %6) #3
  %50 = load ptr, ptr %3, align 8
  ret ptr %50
}

; Function Attrs: mustprogress uwtable
define internal noundef ptr @"_ZN6google8protobuf8internal21ReadPackedVarintArrayIZNS1_10WireFormat27_InternalParseAndMergeFieldEPNS0_7MessageEPKcPNS1_12ParseContextEmPKNS0_10ReflectionEPKNS0_15FieldDescriptorEE3$_0EES7_S7_S7_T_"(ptr noundef %0, ptr noundef %1, ptr noundef byval(%class.anon) align 8 %2) #4 {
  %4 = alloca ptr, align 8
  %5 = alloca ptr, align 8
  %6 = alloca ptr, align 8
  %7 = alloca i64, align 8
  %8 = alloca i32, align 4
  store ptr %0, ptr %5, align 8, !tbaa !51
  store ptr %1, ptr %6, align 8, !tbaa !51
  br label %9

9:                                                ; preds = %23, %3
  %10 = load ptr, ptr %5, align 8, !tbaa !51
  %11 = load ptr, ptr %6, align 8, !tbaa !51
  %12 = icmp ult ptr %10, %11
  br i1 %12, label %13, label %24

13:                                               ; preds = %9
  call void @llvm.lifetime.start.p0(i64 8, ptr %7) #3
  %14 = load ptr, ptr %5, align 8, !tbaa !51
  %15 = call noundef ptr @_ZN6google8protobuf8internal11VarintParseImEEPKcS4_PT_(ptr noundef %14, ptr noundef %7)
  store ptr %15, ptr %5, align 8, !tbaa !51
  %16 = load ptr, ptr %5, align 8, !tbaa !51
  %17 = icmp eq ptr %16, null
  br i1 %17, label %18, label %19

18:                                               ; preds = %13
  store ptr null, ptr %4, align 8
  store i32 1, ptr %8, align 4
  br label %21

19:                                               ; preds = %13
  %20 = load i64, ptr %7, align 8, !tbaa !17
  call void @"_ZZN6google8protobuf8internal10WireFormat27_InternalParseAndMergeFieldEPNS0_7MessageEPKcPNS1_12ParseContextEmPKNS0_10ReflectionEPKNS0_15FieldDescriptorEENK3$_0clEm"(ptr noundef nonnull align 8 dereferenceable(32) %2, i64 noundef %20)
  store i32 0, ptr %8, align 4
  br label %21

21:                                               ; preds = %19, %18
  call void @llvm.lifetime.end.p0(i64 8, ptr %7) #3
  %22 = load i32, ptr %8, align 4
  switch i32 %22, label %28 [
    i32 0, label %23
    i32 1, label %26
  ]

23:                                               ; preds = %21
  br label %9, !llvm.loop !584

24:                                               ; preds = %9
  %25 = load ptr, ptr %5, align 8, !tbaa !51
  store ptr %25, ptr %4, align 8
  br label %26

26:                                               ; preds = %24, %21
  %27 = load ptr, ptr %4, align 8
  ret ptr %27

28:                                               ; preds = %21
  unreachable
}