; Function Attrs: mustprogress uwtable
define internal fastcc noundef ptr @"_ZN6google8protobuf8internal21ReadPackedVarintArrayIZNS1_10WireFormat27_InternalParseAndMergeFieldEPNS0_7MessageEPKcPNS1_12ParseContextEmPKNS0_10ReflectionEPKNS0_15FieldDescriptorEE3$_0EES7_S7_S7_T_"(ptr noundef %0, ptr noundef readnone %1, ptr noundef readonly byval(%class.anon) align 8 captures(none) %2) unnamed_addr #3 personality ptr @__gxx_personality_v0 {
  %4 = icmp ult ptr %0, %1
  br i1 %4, label %.lr.ph, label %"_ZZN6google8protobuf8internal10WireFormat27_InternalParseAndMergeFieldEPNS0_7MessageEPKcPNS1_12ParseContextEmPKNS0_10ReflectionEPKNS0_15FieldDescriptorEENK3$_0clEm.exit.thread"

.lr.ph:                                           ; preds = %3
  %5 = getelementptr inbounds nuw i8, ptr %2, i64 8
  %6 = getelementptr inbounds nuw i8, ptr %2, i64 16
  %7 = getelementptr inbounds nuw i8, ptr %2, i64 24
  br label %8

8:                                                ; preds = %.lr.ph, %"_ZZN6google8protobuf8internal10WireFormat27_InternalParseAndMergeFieldEPNS0_7MessageEPKcPNS1_12ParseContextEmPKNS0_10ReflectionEPKNS0_15FieldDescriptorEENK3$_0clEm.exit"
  %.0716 = phi ptr [ %0, %.lr.ph ], [ %.0.i12, %"_ZZN6google8protobuf8internal10WireFormat27_InternalParseAndMergeFieldEPNS0_7MessageEPKcPNS1_12ParseContextEmPKNS0_10ReflectionEPKNS0_15FieldDescriptorEENK3$_0clEm.exit" ]
  %9 = load i8, ptr %.0716, align 1, !tbaa !20
  %.not.i = icmp sgt i8 %9, -1
  %10 = getelementptr inbounds nuw i8, ptr %.0716, i64 1
  br i1 %.not.i, label %11, label %13

11:                                               ; preds = %8
  %12 = zext nneg i8 %9 to i64
  br label %_ZN6google8protobuf8internal11VarintParseImEEPKcS4_PT_.exit.thread

13:                                               ; preds = %8
  %14 = zext i8 %9 to i32
  %15 = load i8, ptr %10, align 1, !tbaa !20
  %16 = zext i8 %15 to i32
  %17 = shl nuw nsw i32 %16, 7
  %18 = add nsw i32 %14, -128
  %19 = or disjoint i32 %17, %18
  %.not16.i = icmp sgt i8 %15, -1
  br i1 %.not16.i, label %20, label %_ZN6google8protobuf8internal11VarintParseImEEPKcS4_PT_.exit

20:                                               ; preds = %13
  %21 = zext nneg i32 %19 to i64
  %22 = getelementptr inbounds nuw i8, ptr %.0716, i64 2
  br label %_ZN6google8protobuf8internal11VarintParseImEEPKcS4_PT_.exit.thread

_ZN6google8protobuf8internal11VarintParseImEEPKcS4_PT_.exit: ; preds = %13
  %23 = tail call { ptr, i64 } @_ZN6google8protobuf8internal17VarintParseSlow64EPKcj(ptr noundef nonnull %.0716, i32 noundef %19)
  %24 = extractvalue { ptr, i64 } %23, 0
  %25 = extractvalue { ptr, i64 } %23, 1
  %26 = icmp eq ptr %24, null
  br i1 %26, label %"_ZZN6google8protobuf8internal10WireFormat27_InternalParseAndMergeFieldEPNS0_7MessageEPKcPNS1_12ParseContextEmPKNS0_10ReflectionEPKNS0_15FieldDescriptorEENK3$_0clEm.exit.thread", label %_ZN6google8protobuf8internal11VarintParseImEEPKcS4_PT_.exit.thread

_ZN6google8protobuf8internal11VarintParseImEEPKcS4_PT_.exit.thread: ; preds = %20, %11, %_ZN6google8protobuf8internal11VarintParseImEEPKcS4_PT_.exit
  %.0.i12 = phi ptr [ %24, %_ZN6google8protobuf8internal11VarintParseImEEPKcS4_PT_.exit ], [ %22, %20 ], [ %10, %11 ]
  %.011 = phi i64 [ %25, %_ZN6google8protobuf8internal11VarintParseImEEPKcS4_PT_.exit ], [ %21, %20 ], [ %12, %11 ]
  %27 = load ptr, ptr %5, align 8, !tbaa !154
  %28 = tail call noundef ptr @_ZNK6google8protobuf15FieldDescriptor9enum_typeEv(ptr noundef nonnull align 8 dereferenceable(72) %27)
  %29 = trunc i64 %.011 to i32
  %30 = tail call noundef ptr @_ZNK6google8protobuf14EnumDescriptor17FindValueByNumberEi(ptr noundef nonnull align 8 dereferenceable(72) %28, i32 noundef %29)
  %.not.i8 = icmp eq ptr %30, null
  br i1 %.not.i8, label %48, label %31

31:                                               ; preds = %_ZN6google8protobuf8internal11VarintParseImEEPKcS4_PT_.exit.thread
  %32 = load ptr, ptr %2, align 8, !tbaa !151
  %33 = load i32, ptr %32, align 8, !tbaa !27
  %34 = getelementptr inbounds nuw i8, ptr %32, i64 4
  %35 = load i32, ptr %34, align 4, !tbaa !29
  %36 = icmp eq i32 %33, %35
  br i1 %36, label %37, label %43

37:                                               ; preds = %31
  %38 = add i32 %33, 1
  tail call void @_ZN6google8protobuf13RepeatedFieldIiE7ReserveEi(ptr noundef nonnull align 8 dereferenceable(16) %32, i32 noundef %38)
  %39 = getelementptr inbounds nuw i8, ptr %32, i64 8
  %40 = load ptr, ptr %39, align 8, !tbaa !30
  %41 = zext i32 %33 to i64
  %42 = getelementptr inbounds nuw i32, ptr %40, i64 %41
  store i32 %29, ptr %42, align 4, !tbaa !26
  br label %_ZN6google8protobuf13RepeatedFieldIiE3AddERKi.exit.i

43:                                               ; preds = %31
  %44 = getelementptr inbounds nuw i8, ptr %32, i64 8
  %45 = load ptr, ptr %44, align 8, !tbaa !30
  %46 = zext i32 %33 to i64
  %47 = getelementptr inbounds nuw i32, ptr %45, i64 %46
  store i32 %29, ptr %47, align 4, !tbaa !26
  %.pre.i.i = add i32 %33, 1
  br label %_ZN6google8protobuf13RepeatedFieldIiE3AddERKi.exit.i

_ZN6google8protobuf13RepeatedFieldIiE3AddERKi.exit.i: ; preds = %43, %37
  %.pre-phi.i.i = phi i32 [ %.pre.i.i, %43 ], [ %38, %37 ]
  store i32 %.pre-phi.i.i, ptr %32, align 8, !tbaa !27
  br label %"_ZZN6google8protobuf8internal10WireFormat27_InternalParseAndMergeFieldEPNS0_7MessageEPKcPNS1_12ParseContextEmPKNS0_10ReflectionEPKNS0_15FieldDescriptorEENK3$_0clEm.exit"

48:                                               ; preds = %_ZN6google8protobuf8internal11VarintParseImEEPKcS4_PT_.exit.thread
  %49 = getelementptr inbounds nuw i8, ptr %27, i64 4
  %50 = load i32, ptr %49, align 4, !tbaa !188
  %51 = load ptr, ptr %6, align 8, !tbaa !155
  %52 = load ptr, ptr %7, align 8, !tbaa !156
  %53 = tail call noundef ptr @_ZNK6google8protobuf10Reflection20MutableUnknownFieldsEPNS0_7MessageE(ptr noundef nonnull align 8 dereferenceable(96) %51, ptr noundef %52)
  tail call void @_ZN6google8protobuf15UnknownFieldSet9AddVarintEim(ptr noundef nonnull align 8 dereferenceable(24) %53, i32 noundef %50, i64 noundef %.011)
  br label %"_ZZN6google8protobuf8internal10WireFormat27_InternalParseAndMergeFieldEPNS0_7MessageEPKcPNS1_12ParseContextEmPKNS0_10ReflectionEPKNS0_15FieldDescriptorEENK3$_0clEm.exit"

"_ZZN6google8protobuf8internal10WireFormat27_InternalParseAndMergeFieldEPNS0_7MessageEPKcPNS1_12ParseContextEmPKNS0_10ReflectionEPKNS0_15FieldDescriptorEENK3$_0clEm.exit": ; preds = %48, %_ZN6google8protobuf13RepeatedFieldIiE3AddERKi.exit.i
  %54 = icmp ult ptr %.0.i12, %1
  br i1 %54, label %8, label %"_ZZN6google8protobuf8internal10WireFormat27_InternalParseAndMergeFieldEPNS0_7MessageEPKcPNS1_12ParseContextEmPKNS0_10ReflectionEPKNS0_15FieldDescriptorEENK3$_0clEm.exit.thread"

"_ZZN6google8protobuf8internal10WireFormat27_InternalParseAndMergeFieldEPNS0_7MessageEPKcPNS1_12ParseContextEmPKNS0_10ReflectionEPKNS0_15FieldDescriptorEENK3$_0clEm.exit.thread": ; preds = %"_ZZN6google8protobuf8internal10WireFormat27_InternalParseAndMergeFieldEPNS0_7MessageEPKcPNS1_12ParseContextEmPKNS0_10ReflectionEPKNS0_15FieldDescriptorEENK3$_0clEm.exit", %_ZN6google8protobuf8internal11VarintParseImEEPKcS4_PT_.exit, %3
  %.2 = phi ptr [ %0, %3 ], [ null, %_ZN6google8protobuf8internal11VarintParseImEEPKcS4_PT_.exit ], [ %.0.i12, %"_ZZN6google8protobuf8internal10WireFormat27_InternalParseAndMergeFieldEPNS0_7MessageEPKcPNS1_12ParseContextEmPKNS0_10ReflectionEPKNS0_15FieldDescriptorEENK3$_0clEm.exit" ]
  ret ptr %.2
}